target datalayout = "e-m:e-p270:32:32-p271:32:32-p272:64:64-i64:64-i128:128-f80:128-n8:16:32:64-S128"
target triple = "x86_64-pc-linux-gnu"

%struct.ossl_param_st = type { ptr, i32, ptr, i64, i64 }

@bio_err = external global ptr, align 8
@quiet = internal global i32 0, align 4
@.str.142 = private unnamed_addr constant [1 x i8] zeroinitializer, align 1
@.str.143 = private unnamed_addr constant [28 x i8] c"Failed to load FIPS module\0A\00", align 1
@.str.144 = private unnamed_addr constant [5 x i8] c"name\00", align 1
@.str.145 = private unnamed_addr constant [8 x i8] c"version\00", align 1
@.str.146 = private unnamed_addr constant [10 x i8] c"buildinfo\00", align 1
@.str.147 = private unnamed_addr constant [40 x i8] c"Failed to query FIPS module parameters\0A\00", align 1
@.str.148 = private unnamed_addr constant [11 x i8] c"\09%-10s\09%s\0A\00", align 1
@.str.149 = private unnamed_addr constant [6 x i8] c"name:\00", align 1
@.str.150 = private unnamed_addr constant [9 x i8] c"version:\00", align 1
@.str.151 = private unnamed_addr constant [7 x i8] c"build:\00", align 1
@.str.152 = private unnamed_addr constant [5 x i8] c"3.0.\00", align 1

; Function Attrs: nounwind uwtable
define internal i32 @load_fips_prov_and_run_self_test(ptr noundef %0, ptr noundef %1) #0 {
  %3 = alloca ptr, align 8
  %4 = alloca ptr, align 8
  %5 = alloca i32, align 4
  %6 = alloca ptr, align 8
  %7 = alloca [4 x %struct.ossl_param_st], align 16
  %8 = alloca ptr, align 8
  %9 = alloca ptr, align 8
  %10 = alloca ptr, align 8
  %11 = alloca ptr, align 8
  %12 = alloca %struct.ossl_param_st, align 8
  %13 = alloca %struct.ossl_param_st, align 8
  %14 = alloca %struct.ossl_param_st, align 8
  %15 = alloca %struct.ossl_param_st, align 8
  %16 = alloca %struct.ossl_param_st, align 8
  %17 = alloca %struct.ossl_param_st, align 8
  store ptr %0, ptr %3, align 8, !tbaa !11
  store ptr %1, ptr %4, align 8, !tbaa !38
  call void @llvm.lifetime.start.p0(i64 4, ptr %5) #6
  store i32 0, ptr %5, align 4, !tbaa !4
  call void @llvm.lifetime.start.p0(i64 8, ptr %6) #6
  store ptr null, ptr %6, align 8, !tbaa !40
  call void @llvm.lifetime.start.p0(i64 160, ptr %7) #6
  call void @llvm.lifetime.start.p0(i64 8, ptr %8) #6
  %18 = getelementptr inbounds [4 x %struct.ossl_param_st], ptr %7, i64 0, i64 0
  store ptr %18, ptr %8, align 8, !tbaa !29
  call void @llvm.lifetime.start.p0(i64 8, ptr %9) #6
  store ptr @.str.142, ptr %9, align 8, !tbaa !11
  call void @llvm.lifetime.start.p0(i64 8, ptr %10) #6
  store ptr @.str.142, ptr %10, align 8, !tbaa !11
  call void @llvm.lifetime.start.p0(i64 8, ptr %11) #6
  store ptr @.str.142, ptr %11, align 8, !tbaa !11
  %19 = load ptr, ptr %3, align 8, !tbaa !11
  %20 = call ptr @OSSL_PROVIDER_load(ptr noundef null, ptr noundef %19)
  store ptr %20, ptr %6, align 8, !tbaa !40
  %21 = load ptr, ptr %6, align 8, !tbaa !40
  %22 = icmp eq ptr %21, null
  br i1 %22, label %23, label %26

23:                                               ; preds = %2
  %24 = load ptr, ptr @bio_err, align 8, !tbaa !13
  %25 = call i32 (ptr, ptr, ...) @BIO_printf(ptr noundef %24, ptr noundef @.str.143)
  br label %89

26:                                               ; preds = %2
  %27 = load i32, ptr @quiet, align 4, !tbaa !4
  %28 = icmp ne i32 %27, 0
  br i1 %28, label %71, label %29

29:                                               ; preds = %26
  %30 = load ptr, ptr %8, align 8, !tbaa !29
  %31 = getelementptr inbounds nuw %struct.ossl_param_st, ptr %30, i32 1
  store ptr %31, ptr %8, align 8, !tbaa !29
  call void @llvm.lifetime.start.p0(i64 40, ptr %12) #6
  call void @OSSL_PARAM_construct_utf8_ptr(ptr dead_on_unwind writable sret(%struct.ossl_param_st) align 8 %12, ptr noundef @.str.144, ptr noundef %9, i64 noundef 8)
  call void @llvm.memcpy.p0.p0.i64(ptr align 8 %30, ptr align 8 %12, i64 40, i1 false), !tbaa.struct !42
  call void @llvm.lifetime.end.p0(i64 40, ptr %12) #6
  %32 = load ptr, ptr %8, align 8, !tbaa !29
  %33 = getelementptr inbounds nuw %struct.ossl_param_st, ptr %32, i32 1
  store ptr %33, ptr %8, align 8, !tbaa !29
  call void @llvm.lifetime.start.p0(i64 40, ptr %13) #6
  call void @OSSL_PARAM_construct_utf8_ptr(ptr dead_on_unwind writable sret(%struct.ossl_param_st) align 8 %13, ptr noundef @.str.145, ptr noundef %10, i64 noundef 8)
  call void @llvm.memcpy.p0.p0.i64(ptr align 8 %32, ptr align 8 %13, i64 40, i1 false), !tbaa.struct !42
  call void @llvm.lifetime.end.p0(i64 40, ptr %13) #6
  %34 = load ptr, ptr %8, align 8, !tbaa !29
  %35 = getelementptr inbounds nuw %struct.ossl_param_st, ptr %34, i32 1
  store ptr %35, ptr %8, align 8, !tbaa !29
  call void @llvm.lifetime.start.p0(i64 40, ptr %14) #6
  call void @OSSL_PARAM_construct_utf8_ptr(ptr dead_on_unwind writable sret(%struct.ossl_param_st) align 8 %14, ptr noundef @.str.146, ptr noundef %11, i64 noundef 8)
  call void @llvm.memcpy.p0.p0.i64(ptr align 8 %34, ptr align 8 %14, i64 40, i1 false), !tbaa.struct !42
  call void @llvm.lifetime.end.p0(i64 40, ptr %14) #6
  %36 = load ptr, ptr %8, align 8, !tbaa !29
  call void @llvm.lifetime.start.p0(i64 40, ptr %15) #6
  call void @OSSL_PARAM_construct_end(ptr dead_on_unwind writable sret(%struct.ossl_param_st) align 8 %15)
  call void @llvm.memcpy.p0.p0.i64(ptr align 8 %36, ptr align 8 %15, i64 40, i1 false), !tbaa.struct !42
  call void @llvm.lifetime.end.p0(i64 40, ptr %15) #6
  %37 = load ptr, ptr %6, align 8, !tbaa !40
  %38 = getelementptr inbounds [4 x %struct.ossl_param_st], ptr %7, i64 0, i64 0
  %39 = call i32 @OSSL_PROVIDER_get_params(ptr noundef %37, ptr noundef %38)
  %40 = icmp ne i32 %39, 0
  br i1 %40, label %44, label %41

41:                                               ; preds = %29
  %42 = load ptr, ptr @bio_err, align 8, !tbaa !13
  %43 = call i32 (ptr, ptr, ...) @BIO_printf(ptr noundef %42, ptr noundef @.str.147)
  br label %89

44:                                               ; preds = %29
  %45 = getelementptr inbounds [4 x %struct.ossl_param_st], ptr %7, i64 0, i64 0
  %46 = call i32 @OSSL_PARAM_modified(ptr noundef %45)
  %47 = icmp ne i32 %46, 0
  br i1 %47, label %48, label %52

48:                                               ; preds = %44
  %49 = load ptr, ptr @bio_err, align 8, !tbaa !13
  %50 = load ptr, ptr %9, align 8, !tbaa !11
  %51 = call i32 (ptr, ptr, ...) @BIO_printf(ptr noundef %49, ptr noundef @.str.148, ptr noundef @.str.149, ptr noundef %50)
  br label %52

52:                                               ; preds = %48, %44
  %53 = getelementptr inbounds [4 x %struct.ossl_param_st], ptr %7, i64 0, i64 0
  %54 = getelementptr inbounds %struct.ossl_param_st, ptr %53, i64 1
  %55 = call i32 @OSSL_PARAM_modified(ptr noundef %54)
  %56 = icmp ne i32 %55, 0
  br i1 %56, label %57, label %61

57:                                               ; preds = %52
  %58 = load ptr, ptr @bio_err, align 8, !tbaa !13
  %59 = load ptr, ptr %10, align 8, !tbaa !11
  %60 = call i32 (ptr, ptr, ...) @BIO_printf(ptr noundef %58, ptr noundef @.str.148, ptr noundef @.str.150, ptr noundef %59)
  br label %61

61:                                               ; preds = %57, %52
  %62 = getelementptr inbounds [4 x %struct.ossl_param_st], ptr %7, i64 0, i64 0
  %63 = getelementptr inbounds %struct.ossl_param_st, ptr %62, i64 2
  %64 = call i32 @OSSL_PARAM_modified(ptr noundef %63)
  %65 = icmp ne i32 %64, 0
  br i1 %65, label %66, label %70

66:                                               ; preds = %61
  %67 = load ptr, ptr @bio_err, align 8, !tbaa !13
  %68 = load ptr, ptr %11, align 8, !tbaa !11
  %69 = call i32 (ptr, ptr, ...) @BIO_printf(ptr noundef %67, ptr noundef @.str.148, ptr noundef @.str.151, ptr noundef %68)
  br label %70

70:                                               ; preds = %66, %61
  br label %83

71:                                               ; preds = %26
  %72 = load ptr, ptr %8, align 8, !tbaa !29
  %73 = getelementptr inbounds nuw %struct.ossl_param_st, ptr %72, i32 1
  store ptr %73, ptr %8, align 8, !tbaa !29
  call void @llvm.lifetime.start.p0(i64 40, ptr %16) #6
  call void @OSSL_PARAM_construct_utf8_ptr(ptr dead_on_unwind writable sret(%struct.ossl_param_st) align 8 %16, ptr noundef @.str.145, ptr noundef %10, i64 noundef 8)
  call void @llvm.memcpy.p0.p0.i64(ptr align 8 %72, ptr align 8 %16, i64 40, i1 false), !tbaa.struct !42
  call void @llvm.lifetime.end.p0(i64 40, ptr %16) #6
  %74 = load ptr, ptr %8, align 8, !tbaa !29
  call void @llvm.lifetime.start.p0(i64 40, ptr %17) #6
  call void @OSSL_PARAM_construct_end(ptr dead_on_unwind writable sret(%struct.ossl_param_st) align 8 %17)
  call void @llvm.memcpy.p0.p0.i64(ptr align 8 %74, ptr align 8 %17, i64 40, i1 false), !tbaa.struct !42
  call void @llvm.lifetime.end.p0(i64 40, ptr %17) #6
  %75 = load ptr, ptr %6, align 8, !tbaa !40
  %76 = getelementptr inbounds [4 x %struct.ossl_param_st], ptr %7, i64 0, i64 0
  %77 = call i32 @OSSL_PROVIDER_get_params(ptr noundef %75, ptr noundef %76)
  %78 = icmp ne i32 %77, 0
  br i1 %78, label %82, label %79

79:                                               ; preds = %71
  %80 = load ptr, ptr @bio_err, align 8, !tbaa !13
  %81 = call i32 (ptr, ptr, ...) @BIO_printf(ptr noundef %80, ptr noundef @.str.147)
  br label %89

82:                                               ; preds = %71
  br label %83

83:                                               ; preds = %82, %70
  %84 = load ptr, ptr %10, align 8, !tbaa !11
  %85 = call i32 @strncmp(ptr noundef @.str.152, ptr noundef %84, i64 noundef 4) #7
  %86 = icmp eq i32 %85, 0
  %87 = zext i1 %86 to i32
  %88 = load ptr, ptr %4, align 8, !tbaa !38
  store i32 %87, ptr %88, align 4, !tbaa !4
  store i32 1, ptr %5, align 4, !tbaa !4
  br label %89

89:                                               ; preds = %83, %79, %41, %23
  %90 = load ptr, ptr %6, align 8, !tbaa !40
  %91 = call i32 @OSSL_PROVIDER_unload(ptr noundef %90)
  %92 = load i32, ptr %5, align 4, !tbaa !4
  call void @llvm.lifetime.end.p0(i64 8, ptr %11) #6
  call void @llvm.lifetime.end.p0(i64 8, ptr %10) #6
  call void @llvm.lifetime.end.p0(i64 8, ptr %9) #6
  call void @llvm.lifetime.end.p0(i64 8, ptr %8) #6
  call void @llvm.lifetime.end.p0(i64 160, ptr %7) #6
  call void @llvm.lifetime.end.p0(i64 8, ptr %6) #6
  call void @llvm.lifetime.end.p0(i64 4, ptr %5) #6
  ret i32 %92
}