; Function Attrs: nounwind uwtable
define internal fastcc range(i32 0, 2) i32 @load_fips_prov_and_run_self_test(ptr noundef %0, ptr noundef nonnull writeonly captures(none) %1) unnamed_addr #0 {
  %3 = alloca [4 x %struct.ossl_param_st], align 16
  %4 = alloca ptr, align 8
  %5 = alloca ptr, align 8
  %6 = alloca ptr, align 8
  %7 = alloca %struct.ossl_param_st, align 8
  %8 = alloca %struct.ossl_param_st, align 8
  %9 = alloca %struct.ossl_param_st, align 8
  %10 = alloca %struct.ossl_param_st, align 8
  call void @llvm.lifetime.start.p0(i64 160, ptr nonnull %3) #6
  call void @llvm.lifetime.start.p0(i64 8, ptr nonnull %4) #6
  store ptr @.str.142, ptr %4, align 8, !tbaa !14
  call void @llvm.lifetime.start.p0(i64 8, ptr nonnull %5) #6
  store ptr @.str.142, ptr %5, align 8, !tbaa !14
  call void @llvm.lifetime.start.p0(i64 8, ptr nonnull %6) #6
  store ptr @.str.142, ptr %6, align 8, !tbaa !14
  %11 = tail call ptr @OSSL_PROVIDER_load(ptr noundef null, ptr noundef %0) #6
  %12 = icmp eq ptr %11, null
  br i1 %12, label %13, label %16

13:                                               ; preds = %2
  %14 = load ptr, ptr @bio_err, align 8, !tbaa !10
  %15 = tail call i32 (ptr, ptr, ...) @BIO_printf(ptr noundef %14, ptr noundef nonnull @.str.143) #6
  br label %53

16:                                               ; preds = %2
  %.b = load i1, ptr @quiet, align 4
  %17 = getelementptr inbounds nuw i8, ptr %3, i64 40
  br i1 %.b, label %43, label %18

18:                                               ; preds = %16
  call void @OSSL_PARAM_construct_utf8_ptr(ptr dead_on_unwind nonnull writable sret(%struct.ossl_param_st) align 8 %3, ptr noundef nonnull @.str.144, ptr noundef nonnull %4, i64 noundef 8) #6
  %19 = getelementptr inbounds nuw i8, ptr %3, i64 80
  call void @llvm.lifetime.start.p0(i64 40, ptr nonnull %7) #6
  call void @OSSL_PARAM_construct_utf8_ptr(ptr dead_on_unwind nonnull writable sret(%struct.ossl_param_st) align 8 %7, ptr noundef nonnull @.str.145, ptr noundef nonnull %5, i64 noundef 8) #6
  call void @llvm.memcpy.p0.p0.i64(ptr noundef nonnull align 8 dereferenceable(40) %17, ptr noundef nonnull align 8 dereferenceable(40) %7, i64 40, i1 false), !tbaa.struct !22
  call void @llvm.lifetime.end.p0(i64 40, ptr nonnull %7) #6
  %20 = getelementptr inbounds nuw i8, ptr %3, i64 120
  call void @llvm.lifetime.start.p0(i64 40, ptr nonnull %8) #6
  call void @OSSL_PARAM_construct_utf8_ptr(ptr dead_on_unwind nonnull writable sret(%struct.ossl_param_st) align 8 %8, ptr noundef nonnull @.str.146, ptr noundef nonnull %6, i64 noundef 8) #6
  call void @llvm.memcpy.p0.p0.i64(ptr noundef nonnull align 16 dereferenceable(40) %19, ptr noundef nonnull align 8 dereferenceable(40) %8, i64 40, i1 false), !tbaa.struct !22
  call void @llvm.lifetime.end.p0(i64 40, ptr nonnull %8) #6
  call void @llvm.lifetime.start.p0(i64 40, ptr nonnull %9) #6
  call void @OSSL_PARAM_construct_end(ptr dead_on_unwind nonnull writable sret(%struct.ossl_param_st) align 8 %9) #6
  call void @llvm.memcpy.p0.p0.i64(ptr noundef nonnull align 8 dereferenceable(40) %20, ptr noundef nonnull align 8 dereferenceable(40) %9, i64 40, i1 false), !tbaa.struct !22
  call void @llvm.lifetime.end.p0(i64 40, ptr nonnull %9) #6
  %21 = call i32 @OSSL_PROVIDER_get_params(ptr noundef nonnull %11, ptr noundef nonnull %3) #6
  %.not = icmp eq i32 %21, 0
  br i1 %.not, label %22, label %25

22:                                               ; preds = %18
  %23 = load ptr, ptr @bio_err, align 8, !tbaa !10
  %24 = call i32 (ptr, ptr, ...) @BIO_printf(ptr noundef %23, ptr noundef nonnull @.str.147) #6
  br label %53

25:                                               ; preds = %18
  %26 = call i32 @OSSL_PARAM_modified(ptr noundef nonnull %3) #6
  %.not13 = icmp eq i32 %26, 0
  br i1 %.not13, label %31, label %27

27:                                               ; preds = %25
  %28 = load ptr, ptr @bio_err, align 8, !tbaa !10
  %29 = load ptr, ptr %4, align 8, !tbaa !14
  %30 = call i32 (ptr, ptr, ...) @BIO_printf(ptr noundef %28, ptr noundef nonnull @.str.148, ptr noundef nonnull @.str.149, ptr noundef %29) #6
  br label %31

31:                                               ; preds = %27, %25
  %32 = call i32 @OSSL_PARAM_modified(ptr noundef nonnull %17) #6
  %.not14 = icmp eq i32 %32, 0
  br i1 %.not14, label %37, label %33

33:                                               ; preds = %31
  %34 = load ptr, ptr @bio_err, align 8, !tbaa !10
  %35 = load ptr, ptr %5, align 8, !tbaa !14
  %36 = call i32 (ptr, ptr, ...) @BIO_printf(ptr noundef %34, ptr noundef nonnull @.str.148, ptr noundef nonnull @.str.150, ptr noundef %35) #6
  br label %37

37:                                               ; preds = %33, %31
  %38 = call i32 @OSSL_PARAM_modified(ptr noundef nonnull %19) #6
  %.not15 = icmp eq i32 %38, 0
  br i1 %.not15, label %48, label %39

39:                                               ; preds = %37
  %40 = load ptr, ptr @bio_err, align 8, !tbaa !10
  %41 = load ptr, ptr %6, align 8, !tbaa !14
  %42 = call i32 (ptr, ptr, ...) @BIO_printf(ptr noundef %40, ptr noundef nonnull @.str.148, ptr noundef nonnull @.str.151, ptr noundef %41) #6
  br label %48

43:                                               ; preds = %16
  call void @OSSL_PARAM_construct_utf8_ptr(ptr dead_on_unwind nonnull writable sret(%struct.ossl_param_st) align 8 %3, ptr noundef nonnull @.str.145, ptr noundef nonnull %5, i64 noundef 8) #6
  call void @llvm.lifetime.start.p0(i64 40, ptr nonnull %10) #6
  call void @OSSL_PARAM_construct_end(ptr dead_on_unwind nonnull writable sret(%struct.ossl_param_st) align 8 %10) #6
  call void @llvm.memcpy.p0.p0.i64(ptr noundef nonnull align 8 dereferenceable(40) %17, ptr noundef nonnull align 8 dereferenceable(40) %10, i64 40, i1 false), !tbaa.struct !22
  call void @llvm.lifetime.end.p0(i64 40, ptr nonnull %10) #6
  %44 = call i32 @OSSL_PROVIDER_get_params(ptr noundef nonnull %11, ptr noundef nonnull %3) #6
  %.not16 = icmp eq i32 %44, 0
  br i1 %.not16, label %45, label %48

45:                                               ; preds = %43
  %46 = load ptr, ptr @bio_err, align 8, !tbaa !10
  %47 = call i32 (ptr, ptr, ...) @BIO_printf(ptr noundef %46, ptr noundef nonnull @.str.147) #6
  br label %53

48:                                               ; preds = %43, %37, %39
  %49 = load ptr, ptr %5, align 8, !tbaa !14
  %50 = call i32 @strncmp(ptr noundef nonnull dereferenceable(5) @.str.152, ptr noundef nonnull dereferenceable(1) %49, i64 noundef 4) #7
  %51 = icmp eq i32 %50, 0
  %52 = zext i1 %51 to i32
  store i32 %52, ptr %1, align 4, !tbaa !4
  br label %53

53:                                               ; preds = %48, %45, %22, %13
  %.0 = phi i32 [ 0, %13 ], [ 1, %48 ], [ 0, %45 ], [ 0, %22 ]
  %54 = call i32 @OSSL_PROVIDER_unload(ptr noundef %11) #6
  call void @llvm.lifetime.end.p0(i64 8, ptr nonnull %6) #6
  call void @llvm.lifetime.end.p0(i64 8, ptr nonnull %5) #6
  call void @llvm.lifetime.end.p0(i64 8, ptr nonnull %4) #6
  call void @llvm.lifetime.end.p0(i64 160, ptr nonnull %3) #6
  ret i32 %.0
}